target datalayout = "e-m:e-p270:32:32-p271:32:32-p272:64:64-i64:64-i128:128-f80:128-n8:16:32:64-S128"
target triple = "x86_64-pc-linux-gnu"

%struct._value_string = type { i32, ptr }
%struct._packet_info = type { ptr, ptr, i32, i32, %struct.nstime_t, %struct.nstime_t, %struct.nstime_t, i32, ptr, ptr, ptr, ptr, %struct._address, %struct._address, %struct._address, %struct._address, %struct._address, %struct._address, i32, ptr, i32, %struct.anon, i32, i32, i32, i32, ptr, i32, ptr, ptr, i16, i16, i32, i32, i16, i32, i32, ptr, ptr, ptr, i8, i8, i16, i16, i16, i32, i16, i16, ptr, ptr, ptr, ptr, ptr, i32 }
%struct.nstime_t = type { i64, i32 }
%struct._address = type { i32, i32, ptr, ptr }
%struct.anon = type { i8, [3 x i8] }

@hf_uci_parameters_count = internal global i32 0, align 4
@hf_uci_parameter_type = internal global i32 0, align 4
@parameter_type_vals = internal constant [3 x %struct._value_string] [%struct._value_string { i32 0, ptr @.str.14 }, %struct._value_string { i32 1, ptr @.str.193 }, %struct._value_string zeroinitializer], align 16
@ett_uci_parameters = internal global i32 0, align 4
@ett_uci_parameter = internal global i32 0, align 4
@.str.280 = private unnamed_addr constant [17 x i8] c"Unknown (0x%02x)\00", align 1
@.str.281 = private unnamed_addr constant [20 x i8] c"Core Get Config Cmd\00", align 1
@.str.282 = private unnamed_addr constant [14 x i8] c"Parameter IDs\00", align 1

; Function Attrs: nounwind uwtable
define internal void @dissect_core_get_config_cmd(ptr noundef %0, i32 noundef %1, ptr noundef %2, ptr noundef %3) #0 {
  %5 = alloca ptr, align 8
  %6 = alloca i32, align 4
  %7 = alloca ptr, align 8
  %8 = alloca ptr, align 8
  %9 = alloca i32, align 4
  %10 = alloca ptr, align 8
  %11 = alloca i32, align 4
  %12 = alloca i32, align 4
  %13 = alloca ptr, align 8
  store ptr %0, ptr %5, align 8
  store i32 %1, ptr %6, align 4
  store ptr %2, ptr %7, align 8
  store ptr %3, ptr %8, align 8
  %14 = load ptr, ptr %7, align 8
  %15 = getelementptr inbounds %struct._packet_info, ptr %14, i32 0, i32 1
  %16 = load ptr, ptr %15, align 8
  call void (ptr, i32, ptr, ...) @col_add_fstr(ptr noundef %16, i32 noundef 25, ptr noundef @.str.281)
  %17 = load ptr, ptr %5, align 8
  %18 = load i32, ptr %6, align 4
  %19 = call zeroext i8 @tvb_get_guint8(ptr noundef %17, i32 noundef %18)
  %20 = zext i8 %19 to i32
  store i32 %20, ptr %9, align 4
  %21 = load ptr, ptr %8, align 8
  %22 = load i32, ptr @hf_uci_parameters_count, align 4
  %23 = load ptr, ptr %5, align 8
  %24 = load i32, ptr %6, align 4
  %25 = call ptr @proto_tree_add_item(ptr noundef %21, i32 noundef %22, ptr noundef %23, i32 noundef %24, i32 noundef 1, i32 noundef 0)
  %26 = load i32, ptr %6, align 4
  %27 = add i32 %26, 1
  store i32 %27, ptr %6, align 4
  %28 = load i32, ptr %9, align 4
  %29 = icmp eq i32 %28, 0
  br i1 %29, label %30, label %31

30:                                               ; preds = %4
  br label %63

31:                                               ; preds = %4
  %32 = load ptr, ptr %8, align 8
  %33 = load ptr, ptr %5, align 8
  %34 = load i32, ptr %6, align 4
  %35 = load i32, ptr @ett_uci_parameters, align 4
  %36 = call ptr @proto_tree_add_subtree(ptr noundef %32, ptr noundef %33, i32 noundef %34, i32 noundef -1, i32 noundef %35, ptr noundef null, ptr noundef @.str.282)
  store ptr %36, ptr %10, align 8
  store i32 0, ptr %11, align 4
  br label %37

37:                                               ; preds = %60, %31
  %38 = load i32, ptr %11, align 4
  %39 = load i32, ptr %9, align 4
  %40 = icmp slt i32 %38, %39
  br i1 %40, label %41, label %63

41:                                               ; preds = %37
  %42 = load ptr, ptr %5, align 8
  %43 = load i32, ptr %6, align 4
  %44 = call zeroext i8 @tvb_get_guint8(ptr noundef %42, i32 noundef %43)
  %45 = zext i8 %44 to i32
  store i32 %45, ptr %12, align 4
  %46 = load ptr, ptr %10, align 8
  %47 = load ptr, ptr %5, align 8
  %48 = load i32, ptr %6, align 4
  %49 = load i32, ptr @ett_uci_parameter, align 4
  %50 = load i32, ptr %12, align 4
  %51 = call ptr @val_to_str(i32 noundef %50, ptr noundef @parameter_type_vals, ptr noundef @.str.280)
  %52 = call ptr @proto_tree_add_subtree(ptr noundef %46, ptr noundef %47, i32 noundef %48, i32 noundef 1, i32 noundef %49, ptr noundef null, ptr noundef %51)
  store ptr %52, ptr %13, align 8
  %53 = load ptr, ptr %13, align 8
  %54 = load i32, ptr @hf_uci_parameter_type, align 4
  %55 = load ptr, ptr %5, align 8
  %56 = load i32, ptr %6, align 4
  %57 = call ptr @proto_tree_add_item(ptr noundef %53, i32 noundef %54, ptr noundef %55, i32 noundef %56, i32 noundef 1, i32 noundef 0)
  %58 = load i32, ptr %6, align 4
  %59 = add i32 %58, 1
  store i32 %59, ptr %6, align 4
  br label %60

60:                                               ; preds = %41
  %61 = load i32, ptr %11, align 4
  %62 = add i32 %61, 1
  store i32 %62, ptr %11, align 4
  br label %37, !llvm.loop !6

63:                                               ; preds = %37, %30
  ret void
}