; Function Attrs: nounwind uwtable
define internal fastcc void @dissect_core_get_config_cmd(ptr noundef %0, ptr %.8.val, ptr noundef %1) unnamed_addr #0 {
  tail call void (ptr, i32, ptr, ...) @col_add_fstr(ptr noundef %.8.val, i32 noundef 25, ptr noundef nonnull @.str.281) #2
  %3 = tail call zeroext i8 @tvb_get_guint8(ptr noundef %0, i32 noundef 4) #2
  %4 = load i32, ptr @hf_uci_parameters_count, align 4
  %5 = tail call ptr @proto_tree_add_item(ptr noundef %1, i32 noundef %4, ptr noundef %0, i32 noundef 4, i32 noundef 1, i32 noundef 0) #2
  %6 = icmp eq i8 %3, 0
  br i1 %6, label %.loopexit, label %7

7:                                                ; preds = %2
  %8 = zext i8 %3 to i32
  %9 = load i32, ptr @ett_uci_parameters, align 4
  %10 = tail call ptr @proto_tree_add_subtree(ptr noundef %1, ptr noundef %0, i32 noundef 5, i32 noundef -1, i32 noundef %9, ptr noundef null, ptr noundef nonnull @.str.282) #2
  %11 = add nuw nsw i32 %8, 4
  br label %12

12:                                               ; preds = %7, %12
  %.02 = phi i32 [ 5, %7 ], [ %20, %12 ]
  %13 = tail call zeroext i8 @tvb_get_guint8(ptr noundef %0, i32 noundef %.02) #2
  %14 = zext i8 %13 to i32
  %15 = load i32, ptr @ett_uci_parameter, align 4
  %16 = tail call ptr @val_to_str(i32 noundef %14, ptr noundef nonnull @parameter_type_vals, ptr noundef nonnull @.str.280) #2
  %17 = tail call ptr @proto_tree_add_subtree(ptr noundef %10, ptr noundef %0, i32 noundef %.02, i32 noundef 1, i32 noundef %15, ptr noundef null, ptr noundef %16) #2
  %18 = load i32, ptr @hf_uci_parameter_type, align 4
  %19 = tail call ptr @proto_tree_add_item(ptr noundef %17, i32 noundef %18, ptr noundef %0, i32 noundef %.02, i32 noundef 1, i32 noundef 0) #2
  %20 = add nuw nsw i32 %.02, 1
  %exitcond.not = icmp eq i32 %.02, %11
  br i1 %exitcond.not, label %.loopexit, label %12, !llvm.loop !7

.loopexit:                                        ; preds = %12, %2
  ret void
}